target datalayout = "e-m:e-p270:32:32-p271:32:32-p272:64:64-i64:64-i128:128-f80:128-n8:16:32:64-S128"
target triple = "x86_64-pc-linux-gnu"

%struct.SDL_AudioStream = type { ptr, i32, ptr, ptr, ptr, ptr, %struct.SDL_AudioSpec, %struct.SDL_AudioSpec, ptr, ptr, float, float, ptr, %struct.SDL_AudioSpec, ptr, [8 x i32], i64, ptr, i64, i8, ptr, ptr, ptr, ptr, ptr }
%struct.SDL_AudioSpec = type { i32, i32, i32 }

@.str = private unnamed_addr constant [26 x i8] c"Parameter '%s' is invalid\00", align 1
@.str.1 = private unnamed_addr constant [7 x i8] c"stream\00", align 1
@.str.19 = private unnamed_addr constant [9 x i8] c"src_data\00", align 1
@.str.20 = private unnamed_addr constant [8 x i8] c"src_len\00", align 1
@.str.21 = private unnamed_addr constant [9 x i8] c"dst_data\00", align 1
@.str.22 = private unnamed_addr constant [8 x i8] c"dst_len\00", align 1

; Function Attrs: nounwind uwtable
define hidden i32 @SDL_GetAudioStreamData_REAL(ptr noundef %0, ptr noundef %1, i32 noundef %2) #0 {
  %4 = alloca ptr, align 8
  %5 = alloca ptr, align 8
  %6 = alloca i32, align 4
  store ptr %0, ptr %4, align 8
  store ptr %1, ptr %5, align 8
  store i32 %2, ptr %6, align 4
  %7 = load ptr, ptr %4, align 8
  %8 = load ptr, ptr %5, align 8
  %9 = load i32, ptr %6, align 4
  %10 = call i32 @SDL_GetAudioStreamDataAdjustGain(ptr noundef %7, ptr noundef %8, i32 noundef %9, float noundef 1.000000e+00)
  ret i32 %10
}

; Function Attrs: nounwind uwtable
define hidden zeroext i1 @SDL_FlushAudioStream_REAL(ptr noundef %0) #0 {
  %2 = alloca i1, align 1
  %3 = alloca ptr, align 8
  store ptr %0, ptr %3, align 8
  %4 = load ptr, ptr %3, align 8
  %5 = icmp ne ptr %4, null
  br i1 %5, label %8, label %6

6:                                                ; preds = %1
  %7 = call zeroext i1 (ptr, ...) @SDL_SetError_REAL(ptr noundef @.str, ptr noundef @.str.1)
  store i1 %7, ptr %2, align 1
  br label %18

8:                                                ; preds = %1
  %9 = load ptr, ptr %3, align 8
  %10 = getelementptr inbounds nuw %struct.SDL_AudioStream, ptr %9, i32 0, i32 0
  %11 = load ptr, ptr %10, align 8
  call void @SDL_LockMutex_REAL(ptr noundef %11)
  %12 = load ptr, ptr %3, align 8
  %13 = getelementptr inbounds nuw %struct.SDL_AudioStream, ptr %12, i32 0, i32 12
  %14 = load ptr, ptr %13, align 8
  call void @SDL_FlushAudioQueue(ptr noundef %14)
  %15 = load ptr, ptr %3, align 8
  %16 = getelementptr inbounds nuw %struct.SDL_AudioStream, ptr %15, i32 0, i32 0
  %17 = load ptr, ptr %16, align 8
  call void @SDL_UnlockMutex_REAL(ptr noundef %17)
  store i1 true, ptr %2, align 1
  br label %18

18:                                               ; preds = %8, %6
  %19 = load i1, ptr %2, align 1
  ret i1 %19
}

; Function Attrs: nounwind uwtable
define hidden zeroext i1 @SDL_ConvertAudioSamples_REAL(ptr noundef %0, ptr noundef %1, i32 noundef %2, ptr noundef %3, ptr noundef %4, ptr noundef %5) #0 {
  %7 = alloca i1, align 1
  %8 = alloca ptr, align 8
  %9 = alloca ptr, align 8
  %10 = alloca i32, align 4
  %11 = alloca ptr, align 8
  %12 = alloca ptr, align 8
  %13 = alloca ptr, align 8
  %14 = alloca i8, align 1
  %15 = alloca ptr, align 8
  %16 = alloca i32, align 4
  %17 = alloca ptr, align 8
  store ptr %0, ptr %8, align 8
  store ptr %1, ptr %9, align 8
  store i32 %2, ptr %10, align 4
  store ptr %3, ptr %11, align 8
  store ptr %4, ptr %12, align 8
  store ptr %5, ptr %13, align 8
  %18 = load ptr, ptr %12, align 8
  %19 = icmp ne ptr %18, null
  br i1 %19, label %20, label %22

20:                                               ; preds = %6
  %21 = load ptr, ptr %12, align 8
  store ptr null, ptr %21, align 8
  br label %22

22:                                               ; preds = %20, %6
  %23 = load ptr, ptr %13, align 8
  %24 = icmp ne ptr %23, null
  br i1 %24, label %25, label %27

25:                                               ; preds = %22
  %26 = load ptr, ptr %13, align 8
  store i32 0, ptr %26, align 4
  br label %27

27:                                               ; preds = %25, %22
  %28 = load ptr, ptr %9, align 8
  %29 = icmp ne ptr %28, null
  br i1 %29, label %32, label %30

30:                                               ; preds = %27
  %31 = call zeroext i1 (ptr, ...) @SDL_SetError_REAL(ptr noundef @.str, ptr noundef @.str.19)
  store i1 %31, ptr %7, align 1
  br label %100

32:                                               ; preds = %27
  %33 = load i32, ptr %10, align 4
  %34 = icmp slt i32 %33, 0
  br i1 %34, label %35, label %37

35:                                               ; preds = %32
  %36 = call zeroext i1 (ptr, ...) @SDL_SetError_REAL(ptr noundef @.str, ptr noundef @.str.20)
  store i1 %36, ptr %7, align 1
  br label %100

37:                                               ; preds = %32
  %38 = load ptr, ptr %12, align 8
  %39 = icmp ne ptr %38, null
  br i1 %39, label %42, label %40

40:                                               ; preds = %37
  %41 = call zeroext i1 (ptr, ...) @SDL_SetError_REAL(ptr noundef @.str, ptr noundef @.str.21)
  store i1 %41, ptr %7, align 1
  br label %100

42:                                               ; preds = %37
  %43 = load ptr, ptr %13, align 8
  %44 = icmp ne ptr %43, null
  br i1 %44, label %47, label %45

45:                                               ; preds = %42
  %46 = call zeroext i1 (ptr, ...) @SDL_SetError_REAL(ptr noundef @.str, ptr noundef @.str.22)
  store i1 %46, ptr %7, align 1
  br label %100

47:                                               ; preds = %42
  br label %48

48:                                               ; preds = %47
  br label %49

49:                                               ; preds = %48
  br label %50

50:                                               ; preds = %49
  call void @llvm.lifetime.start.p0(i64 1, ptr %14) #7
  store i8 0, ptr %14, align 1
  call void @llvm.lifetime.start.p0(i64 8, ptr %15) #7
  store ptr null, ptr %15, align 8
  call void @llvm.lifetime.start.p0(i64 4, ptr %16) #7
  store i32 0, ptr %16, align 4
  call void @llvm.lifetime.start.p0(i64 8, ptr %17) #7
  %51 = load ptr, ptr %8, align 8
  %52 = load ptr, ptr %11, align 8
  %53 = call ptr @SDL_CreateAudioStream_REAL(ptr noundef %51, ptr noundef %52)
  store ptr %53, ptr %17, align 8
  %54 = load ptr, ptr %17, align 8
  %55 = icmp ne ptr %54, null
  br i1 %55, label %56, label %86

56:                                               ; preds = %50
  %57 = load ptr, ptr %17, align 8
  %58 = load ptr, ptr %9, align 8
  %59 = load i32, ptr %10, align 4
  %60 = call zeroext i1 @PutAudioStreamBuffer(ptr noundef %57, ptr noundef %58, i32 noundef %59, ptr noundef @DontFreeThisAudioBuffer, ptr noundef null)
  br i1 %60, label %61, label %85

61:                                               ; preds = %56
  %62 = load ptr, ptr %17, align 8
  %63 = call zeroext i1 @SDL_FlushAudioStream_REAL(ptr noundef %62)
  br i1 %63, label %64, label %85

64:                                               ; preds = %61
  %65 = load ptr, ptr %17, align 8
  %66 = call i32 @SDL_GetAudioStreamAvailable_REAL(ptr noundef %65)
  store i32 %66, ptr %16, align 4
  %67 = load i32, ptr %16, align 4
  %68 = icmp sge i32 %67, 0
  br i1 %68, label %69, label %84

69:                                               ; preds = %64
  %70 = load i32, ptr %16, align 4
  %71 = sext i32 %70 to i64
  %72 = call noalias ptr @SDL_malloc_REAL(i64 noundef %71)
  store ptr %72, ptr %15, align 8
  %73 = load ptr, ptr %15, align 8
  %74 = icmp ne ptr %73, null
  br i1 %74, label %75, label %83

75:                                               ; preds = %69
  %76 = load ptr, ptr %17, align 8
  %77 = load ptr, ptr %15, align 8
  %78 = load i32, ptr %16, align 4
  %79 = call i32 @SDL_GetAudioStreamData_REAL(ptr noundef %76, ptr noundef %77, i32 noundef %78)
  %80 = load i32, ptr %16, align 4
  %81 = icmp eq i32 %79, %80
  %82 = zext i1 %81 to i8
  store i8 %82, ptr %14, align 1
  br label %83

83:                                               ; preds = %75, %69
  br label %84

84:                                               ; preds = %83, %64
  br label %85

85:                                               ; preds = %84, %61, %56
  br label %86

86:                                               ; preds = %85, %50
  %87 = load i8, ptr %14, align 1, !range !6, !noundef !7
  %88 = trunc i8 %87 to i1
  br i1 %88, label %89, label %94

89:                                               ; preds = %86
  %90 = load ptr, ptr %15, align 8
  %91 = load ptr, ptr %12, align 8
  store ptr %90, ptr %91, align 8
  %92 = load i32, ptr %16, align 4
  %93 = load ptr, ptr %13, align 8
  store i32 %92, ptr %93, align 4
  br label %96

94:                                               ; preds = %86
  %95 = load ptr, ptr %15, align 8
  call void @SDL_free_REAL(ptr noundef %95)
  br label %96

96:                                               ; preds = %94, %89
  %97 = load ptr, ptr %17, align 8
  call void @SDL_DestroyAudioStream_REAL(ptr noundef %97)
  %98 = load i8, ptr %14, align 1, !range !6, !noundef !7
  %99 = trunc i8 %98 to i1
  store i1 %99, ptr %7, align 1
  call void @llvm.lifetime.end.p0(i64 8, ptr %17) #7
  call void @llvm.lifetime.end.p0(i64 4, ptr %16) #7
  call void @llvm.lifetime.end.p0(i64 8, ptr %15) #7
  call void @llvm.lifetime.end.p0(i64 1, ptr %14) #7
  br label %100

100:                                              ; preds = %96, %45, %40, %35, %30
  %101 = load i1, ptr %7, align 1
  ret i1 %101
}