; Function Attrs: nounwind uwtable
define hidden zeroext i1 @SDL_ConvertAudioSamples_REAL(ptr noundef readonly captures(address_is_null) %0, ptr noundef %1, i32 noundef %2, ptr noundef readonly captures(address) %3, ptr noundef writeonly captures(address_is_null) %4, ptr noundef writeonly captures(address_is_null) %5) local_unnamed_addr #2 {
  %.not = icmp eq ptr %4, null
  br i1 %.not, label %8, label %7

7:                                                ; preds = %6
  store ptr null, ptr %4, align 8
  br label %8

8:                                                ; preds = %7, %6
  %.not44 = icmp eq ptr %5, null
  br i1 %.not44, label %10, label %9

9:                                                ; preds = %8
  store i32 0, ptr %5, align 4
  br label %10

10:                                               ; preds = %9, %8
  %.not45 = icmp eq ptr %1, null
  br i1 %.not45, label %11, label %13

11:                                               ; preds = %10
  %12 = tail call zeroext i1 (ptr, ...) @SDL_SetError_REAL(ptr noundef nonnull @.str, ptr noundef nonnull @.str.19) #11
  br label %42

13:                                               ; preds = %10
  %14 = icmp slt i32 %2, 0
  br i1 %14, label %15, label %17

15:                                               ; preds = %13
  %16 = tail call zeroext i1 (ptr, ...) @SDL_SetError_REAL(ptr noundef nonnull @.str, ptr noundef nonnull @.str.20) #11
  br label %42

17:                                               ; preds = %13
  br i1 %.not, label %18, label %20

18:                                               ; preds = %17
  %19 = tail call zeroext i1 (ptr, ...) @SDL_SetError_REAL(ptr noundef nonnull @.str, ptr noundef nonnull @.str.21) #11
  br label %42

20:                                               ; preds = %17
  br i1 %.not44, label %21, label %23

21:                                               ; preds = %20
  %22 = tail call zeroext i1 (ptr, ...) @SDL_SetError_REAL(ptr noundef nonnull @.str, ptr noundef nonnull @.str.22) #11
  br label %42

23:                                               ; preds = %20
  %24 = tail call ptr @SDL_CreateAudioStream_REAL(ptr noundef %0, ptr noundef %3)
  %.not46 = icmp eq ptr %24, null
  br i1 %.not46, label %.thread, label %25

25:                                               ; preds = %23
  %26 = tail call fastcc zeroext i1 @PutAudioStreamBuffer(ptr noundef %24, ptr noundef %1, i32 noundef %2, ptr noundef nonnull @DontFreeThisAudioBuffer)
  br i1 %26, label %27, label %.thread

27:                                               ; preds = %25
  %28 = load ptr, ptr %24, align 8
  tail call void @SDL_LockMutex_REAL(ptr noundef %28) #11
  %29 = getelementptr inbounds nuw i8, ptr %24, i64 96
  %30 = load ptr, ptr %29, align 8
  tail call void @SDL_FlushAudioQueue(ptr noundef %30) #11
  %31 = load ptr, ptr %24, align 8
  tail call void @SDL_UnlockMutex_REAL(ptr noundef %31) #11
  %32 = tail call i32 @SDL_GetAudioStreamAvailable_REAL(ptr noundef nonnull %24)
  %33 = icmp sgt i32 %32, -1
  br i1 %33, label %34, label %.thread

34:                                               ; preds = %27
  %35 = zext nneg i32 %32 to i64
  %36 = tail call noalias ptr @SDL_malloc_REAL(i64 noundef %35) #11
  %.not47 = icmp eq ptr %36, null
  br i1 %.not47, label %.thread, label %37

37:                                               ; preds = %34
  %38 = tail call i32 @SDL_GetAudioStreamDataAdjustGain(ptr noundef nonnull %24, ptr noundef nonnull %36, i32 noundef %32, float noundef 1.000000e+00)
  %39 = icmp eq i32 %38, %32
  br i1 %39, label %40, label %.thread

40:                                               ; preds = %37
  store ptr %36, ptr %4, align 8
  store i32 %32, ptr %5, align 4
  br label %41

.thread:                                          ; preds = %23, %25, %27, %34, %37
  %.03253 = phi ptr [ %36, %37 ], [ null, %34 ], [ null, %27 ], [ null, %25 ], [ null, %23 ]
  tail call void @SDL_free_REAL(ptr noundef %.03253) #11
  br label %41

41:                                               ; preds = %.thread, %40
  %.03351 = phi i1 [ false, %.thread ], [ true, %40 ]
  tail call void @SDL_DestroyAudioStream_REAL(ptr noundef %24)
  br label %42

42:                                               ; preds = %41, %21, %18, %15, %11
  %.0 = phi i1 [ %16, %15 ], [ %.03351, %41 ], [ %22, %21 ], [ %19, %18 ], [ %12, %11 ]
  ret i1 %.0
}